target datalayout = "e-m:e-p270:32:32-p271:32:32-p272:64:64-i64:64-i128:128-f80:128-n8:16:32:64-S128"
target triple = "x86_64-pc-linux-gnu"

%struct.H5O_cont_t = type { i64, i64, i32 }

@H5O_init_g = external global i8, align 1
@H5_libterm_g = external global i8, align 1

; Function Attrs: nounwind uwtable
define internal i32 @H5O__cont_encode(ptr noundef %0, i1 noundef zeroext %1, i64 noundef %2, ptr noundef %3, ptr noundef %4) #0 {
  %6 = alloca ptr, align 8
  %7 = alloca i8, align 1
  %8 = alloca i64, align 8
  %9 = alloca ptr, align 8
  %10 = alloca ptr, align 8
  %11 = alloca ptr, align 8
  %12 = alloca i64, align 8
  %13 = alloca i64, align 8
  %14 = alloca ptr, align 8
  store ptr %0, ptr %6, align 8, !tbaa !3
  %15 = zext i1 %1 to i8
  store i8 %15, ptr %7, align 1, !tbaa !21
  store i64 %2, ptr %8, align 8, !tbaa !14
  store ptr %3, ptr %9, align 8, !tbaa !16
  store ptr %4, ptr %10, align 8, !tbaa !20
  call void @llvm.lifetime.start.p0(i64 8, ptr %11) #5
  %16 = load ptr, ptr %10, align 8, !tbaa !20
  store ptr %16, ptr %11, align 8, !tbaa !18
  %17 = load i8, ptr @H5O_init_g, align 1, !tbaa !21, !range !23, !noundef !24
  %18 = trunc i8 %17 to i1
  br i1 %18, label %23, label %19

19:                                               ; preds = %5
  %20 = load i8, ptr @H5_libterm_g, align 1, !tbaa !21, !range !23, !noundef !24
  %21 = trunc i8 %20 to i1
  %22 = xor i1 %21, true
  br label %23

23:                                               ; preds = %19, %5
  %24 = phi i1 [ true, %5 ], [ %22, %19 ]
  %25 = xor i1 %24, true
  %26 = xor i1 %25, true
  %27 = zext i1 %26 to i32
  %28 = sext i32 %27 to i64
  %29 = call i64 @llvm.expect.i64(i64 %28, i64 1)
  %30 = icmp ne i64 %29, 0
  br i1 %30, label %31, label %141

31:                                               ; preds = %23
  %32 = load ptr, ptr %6, align 8, !tbaa !3
  %33 = load ptr, ptr %11, align 8, !tbaa !18
  %34 = getelementptr inbounds nuw %struct.H5O_cont_t, ptr %33, i32 0, i32 0
  %35 = load i64, ptr %34, align 8, !tbaa !31
  call void @H5F_addr_encode(ptr noundef %32, ptr noundef %9, i64 noundef %35)
  br label %36

36:                                               ; preds = %31
  %37 = load ptr, ptr %6, align 8, !tbaa !3
  %38 = call zeroext i8 @H5F_sizeof_size(ptr noundef %37)
  %39 = zext i8 %38 to i32
  switch i32 %39, label %137 [
    i32 4, label %40
    i32 8, label %79
    i32 2, label %114
  ]

40:                                               ; preds = %36
  br label %41

41:                                               ; preds = %40
  %42 = load ptr, ptr %11, align 8, !tbaa !18
  %43 = getelementptr inbounds nuw %struct.H5O_cont_t, ptr %42, i32 0, i32 1
  %44 = load i64, ptr %43, align 8, !tbaa !26
  %45 = and i64 %44, 255
  %46 = trunc i64 %45 to i8
  %47 = load ptr, ptr %9, align 8, !tbaa !16
  store i8 %46, ptr %47, align 1, !tbaa !25
  %48 = load ptr, ptr %9, align 8, !tbaa !16
  %49 = getelementptr inbounds nuw i8, ptr %48, i32 1
  store ptr %49, ptr %9, align 8, !tbaa !16
  %50 = load ptr, ptr %11, align 8, !tbaa !18
  %51 = getelementptr inbounds nuw %struct.H5O_cont_t, ptr %50, i32 0, i32 1
  %52 = load i64, ptr %51, align 8, !tbaa !26
  %53 = lshr i64 %52, 8
  %54 = and i64 %53, 255
  %55 = trunc i64 %54 to i8
  %56 = load ptr, ptr %9, align 8, !tbaa !16
  store i8 %55, ptr %56, align 1, !tbaa !25
  %57 = load ptr, ptr %9, align 8, !tbaa !16
  %58 = getelementptr inbounds nuw i8, ptr %57, i32 1
  store ptr %58, ptr %9, align 8, !tbaa !16
  %59 = load ptr, ptr %11, align 8, !tbaa !18
  %60 = getelementptr inbounds nuw %struct.H5O_cont_t, ptr %59, i32 0, i32 1
  %61 = load i64, ptr %60, align 8, !tbaa !26
  %62 = lshr i64 %61, 16
  %63 = and i64 %62, 255
  %64 = trunc i64 %63 to i8
  %65 = load ptr, ptr %9, align 8, !tbaa !16
  store i8 %64, ptr %65, align 1, !tbaa !25
  %66 = load ptr, ptr %9, align 8, !tbaa !16
  %67 = getelementptr inbounds nuw i8, ptr %66, i32 1
  store ptr %67, ptr %9, align 8, !tbaa !16
  %68 = load ptr, ptr %11, align 8, !tbaa !18
  %69 = getelementptr inbounds nuw %struct.H5O_cont_t, ptr %68, i32 0, i32 1
  %70 = load i64, ptr %69, align 8, !tbaa !26
  %71 = lshr i64 %70, 24
  %72 = and i64 %71, 255
  %73 = trunc i64 %72 to i8
  %74 = load ptr, ptr %9, align 8, !tbaa !16
  store i8 %73, ptr %74, align 1, !tbaa !25
  %75 = load ptr, ptr %9, align 8, !tbaa !16
  %76 = getelementptr inbounds nuw i8, ptr %75, i32 1
  store ptr %76, ptr %9, align 8, !tbaa !16
  br label %77

77:                                               ; preds = %41
  br label %78

78:                                               ; preds = %77
  br label %138

79:                                               ; preds = %36
  br label %80

80:                                               ; preds = %79
  call void @llvm.lifetime.start.p0(i64 8, ptr %12) #5
  %81 = load ptr, ptr %11, align 8, !tbaa !18
  %82 = getelementptr inbounds nuw %struct.H5O_cont_t, ptr %81, i32 0, i32 1
  %83 = load i64, ptr %82, align 8, !tbaa !26
  store i64 %83, ptr %12, align 8, !tbaa !14
  call void @llvm.lifetime.start.p0(i64 8, ptr %13) #5
  call void @llvm.lifetime.start.p0(i64 8, ptr %14) #5
  %84 = load ptr, ptr %9, align 8, !tbaa !16
  store ptr %84, ptr %14, align 8, !tbaa !16
  store i64 0, ptr %13, align 8, !tbaa !14
  br label %85

85:                                               ; preds = %94, %80
  %86 = load i64, ptr %13, align 8, !tbaa !14
  %87 = icmp ult i64 %86, 8
  br i1 %87, label %88, label %99

88:                                               ; preds = %85
  %89 = load i64, ptr %12, align 8, !tbaa !14
  %90 = and i64 %89, 255
  %91 = trunc i64 %90 to i8
  %92 = load ptr, ptr %14, align 8, !tbaa !16
  %93 = getelementptr inbounds nuw i8, ptr %92, i32 1
  store ptr %93, ptr %14, align 8, !tbaa !16
  store i8 %91, ptr %92, align 1, !tbaa !25
  br label %94

94:                                               ; preds = %88
  %95 = load i64, ptr %13, align 8, !tbaa !14
  %96 = add i64 %95, 1
  store i64 %96, ptr %13, align 8, !tbaa !14
  %97 = load i64, ptr %12, align 8, !tbaa !14
  %98 = lshr i64 %97, 8
  store i64 %98, ptr %12, align 8, !tbaa !14
  br label %85, !llvm.loop !32

99:                                               ; preds = %85
  br label %100

100:                                              ; preds = %106, %99
  %101 = load i64, ptr %13, align 8, !tbaa !14
  %102 = icmp ult i64 %101, 8
  br i1 %102, label %103, label %109

103:                                              ; preds = %100
  %104 = load ptr, ptr %14, align 8, !tbaa !16
  %105 = getelementptr inbounds nuw i8, ptr %104, i32 1
  store ptr %105, ptr %14, align 8, !tbaa !16
  store i8 0, ptr %104, align 1, !tbaa !25
  br label %106

106:                                              ; preds = %103
  %107 = load i64, ptr %13, align 8, !tbaa !14
  %108 = add i64 %107, 1
  store i64 %108, ptr %13, align 8, !tbaa !14
  br label %100, !llvm.loop !33

109:                                              ; preds = %100
  %110 = load ptr, ptr %9, align 8, !tbaa !16
  %111 = getelementptr inbounds i8, ptr %110, i64 8
  store ptr %111, ptr %9, align 8, !tbaa !16
  call void @llvm.lifetime.end.p0(i64 8, ptr %14) #5
  call void @llvm.lifetime.end.p0(i64 8, ptr %13) #5
  call void @llvm.lifetime.end.p0(i64 8, ptr %12) #5
  br label %112

112:                                              ; preds = %109
  br label %113

113:                                              ; preds = %112
  br label %138

114:                                              ; preds = %36
  br label %115

115:                                              ; preds = %114
  %116 = load ptr, ptr %11, align 8, !tbaa !18
  %117 = getelementptr inbounds nuw %struct.H5O_cont_t, ptr %116, i32 0, i32 1
  %118 = load i64, ptr %117, align 8, !tbaa !26
  %119 = trunc i64 %118 to i32
  %120 = and i32 %119, 255
  %121 = trunc i32 %120 to i8
  %122 = load ptr, ptr %9, align 8, !tbaa !16
  store i8 %121, ptr %122, align 1, !tbaa !25
  %123 = load ptr, ptr %9, align 8, !tbaa !16
  %124 = getelementptr inbounds nuw i8, ptr %123, i32 1
  store ptr %124, ptr %9, align 8, !tbaa !16
  %125 = load ptr, ptr %11, align 8, !tbaa !18
  %126 = getelementptr inbounds nuw %struct.H5O_cont_t, ptr %125, i32 0, i32 1
  %127 = load i64, ptr %126, align 8, !tbaa !26
  %128 = trunc i64 %127 to i32
  %129 = lshr i32 %128, 8
  %130 = and i32 %129, 255
  %131 = trunc i32 %130 to i8
  %132 = load ptr, ptr %9, align 8, !tbaa !16
  store i8 %131, ptr %132, align 1, !tbaa !25
  %133 = load ptr, ptr %9, align 8, !tbaa !16
  %134 = getelementptr inbounds nuw i8, ptr %133, i32 1
  store ptr %134, ptr %9, align 8, !tbaa !16
  br label %135

135:                                              ; preds = %115
  br label %136

136:                                              ; preds = %135
  br label %138

137:                                              ; preds = %36
  br label %138

138:                                              ; preds = %137, %136, %113, %78
  br label %139

139:                                              ; preds = %138
  br label %140

140:                                              ; preds = %139
  br label %141

141:                                              ; preds = %140, %23
  call void @llvm.lifetime.end.p0(i64 8, ptr %11) #5
  ret i32 0
}