; Function Attrs: nounwind uwtable
define internal noundef i32 @H5O__cont_encode(ptr noundef %0, i1 zeroext %1, i64 %2, ptr noundef %3, ptr noundef readonly captures(none) %4) #0 {
  %6 = alloca ptr, align 8
  store ptr %3, ptr %6, align 8, !tbaa !3
  %7 = load i8, ptr @H5O_init_g, align 1, !tbaa !8, !range !10, !noundef !11
  %8 = trunc nuw i8 %7 to i1
  %9 = load i8, ptr @H5_libterm_g, align 1, !range !10
  %10 = trunc nuw i8 %9 to i1
  %11 = xor i1 %10, true
  %12 = select i1 %8, i1 true, i1 %11
  br i1 %12, label %13, label %.loopexit, !prof !12

13:                                               ; preds = %5
  %14 = load i64, ptr %4, align 8, !tbaa !22
  call void @H5F_addr_encode(ptr noundef %0, ptr noundef nonnull %6, i64 noundef %14) #4
  %15 = call zeroext i8 @H5F_sizeof_size(ptr noundef %0) #4
  switch i8 %15, label %.loopexit [
    i8 4, label %16
    i8 8, label %36
    i8 2, label %45
  ]

16:                                               ; preds = %13
  %17 = getelementptr inbounds nuw i8, ptr %4, i64 8
  %18 = load i64, ptr %17, align 8, !tbaa !16
  %19 = trunc i64 %18 to i8
  %20 = load ptr, ptr %6, align 8, !tbaa !3
  store i8 %19, ptr %20, align 1, !tbaa !15
  %21 = load ptr, ptr %6, align 8, !tbaa !3
  %22 = getelementptr inbounds nuw i8, ptr %21, i64 1
  store ptr %22, ptr %6, align 8, !tbaa !3
  %23 = load i64, ptr %17, align 8, !tbaa !16
  %24 = lshr i64 %23, 8
  %25 = trunc i64 %24 to i8
  store i8 %25, ptr %22, align 1, !tbaa !15
  %26 = load ptr, ptr %6, align 8, !tbaa !3
  %27 = getelementptr inbounds nuw i8, ptr %26, i64 1
  store ptr %27, ptr %6, align 8, !tbaa !3
  %28 = load i64, ptr %17, align 8, !tbaa !16
  %29 = lshr i64 %28, 16
  %30 = trunc i64 %29 to i8
  store i8 %30, ptr %27, align 1, !tbaa !15
  %31 = load ptr, ptr %6, align 8, !tbaa !3
  %32 = getelementptr inbounds nuw i8, ptr %31, i64 1
  %33 = load i64, ptr %17, align 8, !tbaa !16
  %34 = lshr i64 %33, 24
  %35 = trunc i64 %34 to i8
  store i8 %35, ptr %32, align 1, !tbaa !15
  br label %.loopexit

36:                                               ; preds = %13
  %37 = getelementptr inbounds nuw i8, ptr %4, i64 8
  %38 = load i64, ptr %37, align 8, !tbaa !16
  %39 = load ptr, ptr %6, align 8, !tbaa !3
  br label %40

40:                                               ; preds = %36, %40
  %.023 = phi ptr [ %39, %36 ], [ %42, %40 ]
  %.01822 = phi i64 [ 0, %36 ], [ %43, %40 ]
  %.02021 = phi i64 [ %38, %36 ], [ %44, %40 ]
  %41 = trunc i64 %.02021 to i8
  %42 = getelementptr inbounds nuw i8, ptr %.023, i64 1
  store i8 %41, ptr %.023, align 1, !tbaa !15
  %43 = add nuw nsw i64 %.01822, 1
  %44 = lshr i64 %.02021, 8
  %exitcond.not = icmp eq i64 %43, 8
  br i1 %exitcond.not, label %.loopexit, label %40, !llvm.loop !23

45:                                               ; preds = %13
  %46 = getelementptr inbounds nuw i8, ptr %4, i64 8
  %47 = load i64, ptr %46, align 8, !tbaa !16
  %48 = trunc i64 %47 to i8
  %49 = load ptr, ptr %6, align 8, !tbaa !3
  store i8 %48, ptr %49, align 1, !tbaa !15
  %50 = load ptr, ptr %6, align 8, !tbaa !3
  %51 = getelementptr inbounds nuw i8, ptr %50, i64 1
  %52 = load i64, ptr %46, align 8, !tbaa !16
  %53 = lshr i64 %52, 8
  %54 = trunc i64 %53 to i8
  store i8 %54, ptr %51, align 1, !tbaa !15
  br label %.loopexit

.loopexit:                                        ; preds = %40, %16, %45, %13, %5
  ret i32 0
}